target datalayout = "e-m:e-p270:32:32-p271:32:32-p272:64:64-i64:64-i128:128-f80:128-n8:16:32:64-S128"
target triple = "x86_64-pc-linux-gnu"

; Function Attrs: mustprogress uwtable
define i32 @LGBM_DatasetCreateFromMat(ptr noundef %0, i32 noundef %1, i32 noundef %2, i32 noundef %3, i32 noundef %4, ptr noundef %5, ptr noundef %6, ptr noundef %7) #4 {
  %9 = alloca ptr, align 8
  %10 = alloca i32, align 4
  %11 = alloca i32, align 4
  %12 = alloca i32, align 4
  %13 = alloca i32, align 4
  %14 = alloca ptr, align 8
  %15 = alloca ptr, align 8
  %16 = alloca ptr, align 8
  store ptr %0, ptr %9, align 8, !tbaa !40
  store i32 %1, ptr %10, align 4, !tbaa !28
  store i32 %2, ptr %11, align 4, !tbaa !28
  store i32 %3, ptr %12, align 4, !tbaa !28
  store i32 %4, ptr %13, align 4, !tbaa !28
  store ptr %5, ptr %14, align 8, !tbaa !11
  store ptr %6, ptr %15, align 8, !tbaa !40
  store ptr %7, ptr %16, align 8, !tbaa !411
  %17 = load i32, ptr %10, align 4, !tbaa !28
  %18 = load i32, ptr %12, align 4, !tbaa !28
  %19 = load ptr, ptr %14, align 8, !tbaa !11
  %20 = load ptr, ptr %15, align 8, !tbaa !40
  %21 = load ptr, ptr %16, align 8, !tbaa !411
  %22 = call i32 @LGBM_DatasetCreateFromMats(i32 noundef 1, ptr noundef %9, i32 noundef %17, ptr noundef %11, i32 noundef %18, ptr noundef %13, ptr noundef %19, ptr noundef %20, ptr noundef %21)
  ret i32 %22
}