; Function Attrs: mustprogress uwtable
define range(i32 -1, 1) i32 @LGBM_DatasetCreateFromMat(ptr noundef %0, i32 noundef %1, i32 noundef %2, i32 noundef %3, i32 noundef %4, ptr noundef %5, ptr noundef %6, ptr noundef writeonly captures(none) %7) local_unnamed_addr #5 {
  %9 = alloca ptr, align 8
  %10 = alloca i32, align 4
  %11 = alloca i32, align 4
  store ptr %0, ptr %9, align 8, !tbaa !16
  store i32 %2, ptr %10, align 4, !tbaa !52
  store i32 %4, ptr %11, align 4, !tbaa !52
  %12 = call i32 @LGBM_DatasetCreateFromMats(i32 noundef 1, ptr noundef nonnull %9, i32 noundef %1, ptr noundef nonnull %10, i32 noundef %3, ptr noundef nonnull %11, ptr noundef %5, ptr noundef %6, ptr noundef %7)
  ret i32 %12
}